	.file	"bof.c"
	.text
	.globl	pass
	.data
	.type	pass, @object
	.size	pass, 5
pass:
	.string	"abcd"
	.section	.rodata
.LC0:
	.string	"Enter your password:\n -> "
	.text
	.globl	validate_user
	.type	validate_user, @function
validate_user:
.LFB0:
	.cfi_startproc
	pushq	%rbp
	.cfi_def_cfa_offset 16
	.cfi_offset 6, -16
	movq	%rsp, %rbp
	.cfi_def_cfa_register 6
	subq	$16, %rsp
	movq	%fs:40, %rax
	movq	%rax, -8(%rbp)
	xorl	%eax, %eax
	leaq	.LC0(%rip), %rdi
	movl	$0, %eax
	call	printf@PLT
	leaq	-13(%rbp), %rax
	movq	%rax, %rdi
	movl	$0, %eax
	call	gets@PLT
	leaq	-13(%rbp), %rax
	leaq	pass(%rip), %rsi
	movq	%rax, %rdi
	call	strcmp@PLT
	testl	%eax, %eax
	sete	%al
	movzbl	%al, %eax
	movq	-8(%rbp), %rdx
	xorq	%fs:40, %rdx
	je	.L3
	call	__stack_chk_fail@PLT
.L3:
	leave
	.cfi_def_cfa 7, 8
	ret
	.cfi_endproc
.LFE0:
	.size	validate_user, .-validate_user
	.section	.rodata
	.align 8
.LC1:
	.string	"Your password was not correct :("
	.text
	.globl	failure
	.type	failure, @function
failure:
.LFB1:
	.cfi_startproc
	pushq	%rbp
	.cfi_def_cfa_offset 16
	.cfi_offset 6, -16
	movq	%rsp, %rbp
	.cfi_def_cfa_register 6
	leaq	.LC1(%rip), %rdi
	call	puts@PLT
	nop
	popq	%rbp
	.cfi_def_cfa 7, 8
	ret
	.cfi_endproc
.LFE1:
	.size	failure, .-failure
	.section	.rodata
.LC2:
	.string	"Your password was correct :)"
	.text
	.globl	success
	.type	success, @function
success:
.LFB2:
	.cfi_startproc
	pushq	%rbp
	.cfi_def_cfa_offset 16
	.cfi_offset 6, -16
	movq	%rsp, %rbp
	.cfi_def_cfa_register 6
	leaq	.LC2(%rip), %rdi
	call	puts@PLT
	nop
	popq	%rbp
	.cfi_def_cfa 7, 8
	ret
	.cfi_endproc
.LFE2:
	.size	success, .-success
	.globl	main
	.type	main, @function
main:
.LFB3:
	.cfi_startproc
	pushq	%rbp
	.cfi_def_cfa_offset 16
	.cfi_offset 6, -16
	movq	%rsp, %rbp
	.cfi_def_cfa_register 6
	subq	$16, %rsp
	movl	%edi, -4(%rbp)
	movq	%rsi, -16(%rbp)
	movl	$0, %eax
	call	validate_user
	testl	%eax, %eax
	je	.L7
	movl	$0, %eax
	call	success
	jmp	.L8
.L7:
	movl	$0, %eax
	call	failure
.L8:
	movl	$0, %eax
	leave
	.cfi_def_cfa 7, 8
	ret
	.cfi_endproc
.LFE3:
	.size	main, .-main
	.ident	"GCC: (Ubuntu 7.5.0-3ubuntu1~18.04) 7.5.0"
	.section	.note.GNU-stack,"",@progbits
